target datalayout = "e-m:e-p270:32:32-p271:32:32-p272:64:64-i64:64-i128:128-f80:128-n8:16:32:64-S128"
target triple = "x86_64-pc-linux-gnu"

%struct.pkcs7_st = type { ptr, i64, i32, i32, ptr, %union.anon, %struct.PKCS7_CTX_st }
%union.anon = type { ptr }
%struct.PKCS7_CTX_st = type { ptr, ptr }
%struct.pkcs7_signedandenveloped_st = type { ptr, ptr, ptr, ptr, ptr, ptr, ptr }
%struct.pkcs7_enc_content_st = type { ptr, ptr, ptr, ptr, ptr }
%struct.pkcs7_enveloped_st = type { ptr, ptr, ptr }

@.str = private unnamed_addr constant [34 x i8] c"../openssl/crypto/pkcs7/pk7_lib.c\00", align 1
@__func__.PKCS7_set_cipher = private unnamed_addr constant [17 x i8] c"PKCS7_set_cipher\00", align 1

; Function Attrs: nounwind uwtable
define ptr @ossl_pkcs7_get0_ctx(ptr noundef %0) #0 {
  %2 = alloca ptr, align 8
  store ptr %0, ptr %2, align 8, !tbaa !3
  %3 = load ptr, ptr %2, align 8, !tbaa !3
  %4 = icmp ne ptr %3, null
  br i1 %4, label %5, label %8

5:                                                ; preds = %1
  %6 = load ptr, ptr %2, align 8, !tbaa !3
  %7 = getelementptr inbounds nuw %struct.pkcs7_st, ptr %6, i32 0, i32 6
  br label %9

8:                                                ; preds = %1
  br label %9

9:                                                ; preds = %8, %5
  %10 = phi ptr [ %7, %5 ], [ null, %8 ]
  ret ptr %10
}

; Function Attrs: nounwind uwtable
define i32 @PKCS7_set_cipher(ptr noundef %0, ptr noundef %1) #0 {
  %3 = alloca i32, align 4
  %4 = alloca ptr, align 8
  %5 = alloca ptr, align 8
  %6 = alloca i32, align 4
  %7 = alloca ptr, align 8
  %8 = alloca i32, align 4
  store ptr %0, ptr %4, align 8, !tbaa !3
  store ptr %1, ptr %5, align 8, !tbaa !134
  call void @llvm.lifetime.start.p0(i64 4, ptr %6) #4
  call void @llvm.lifetime.start.p0(i64 8, ptr %7) #4
  %9 = load ptr, ptr %4, align 8, !tbaa !3
  %10 = getelementptr inbounds nuw %struct.pkcs7_st, ptr %9, i32 0, i32 4
  %11 = load ptr, ptr %10, align 8, !tbaa !14
  %12 = call i32 @OBJ_obj2nid(ptr noundef %11)
  store i32 %12, ptr %6, align 4, !tbaa !8
  %13 = load i32, ptr %6, align 4, !tbaa !8
  switch i32 %13, label %26 [
    i32 24, label %14
    i32 23, label %20
  ]

14:                                               ; preds = %2
  %15 = load ptr, ptr %4, align 8, !tbaa !3
  %16 = getelementptr inbounds nuw %struct.pkcs7_st, ptr %15, i32 0, i32 5
  %17 = load ptr, ptr %16, align 8, !tbaa !19
  %18 = getelementptr inbounds nuw %struct.pkcs7_signedandenveloped_st, ptr %17, i32 0, i32 5
  %19 = load ptr, ptr %18, align 8, !tbaa !35
  store ptr %19, ptr %7, align 8, !tbaa !135
  br label %27

20:                                               ; preds = %2
  %21 = load ptr, ptr %4, align 8, !tbaa !3
  %22 = getelementptr inbounds nuw %struct.pkcs7_st, ptr %21, i32 0, i32 5
  %23 = load ptr, ptr %22, align 8, !tbaa !19
  %24 = getelementptr inbounds nuw %struct.pkcs7_enveloped_st, ptr %23, i32 0, i32 2
  %25 = load ptr, ptr %24, align 8, !tbaa !43
  store ptr %25, ptr %7, align 8, !tbaa !135
  br label %27

26:                                               ; preds = %2
  call void @ERR_new()
  call void @ERR_set_debug(ptr noundef @.str, i32 noundef 700, ptr noundef @__func__.PKCS7_set_cipher)
  call void (i32, i32, ptr, ...) @ERR_set_error(i32 noundef 33, i32 noundef 113, ptr noundef null)
  store i32 0, ptr %3, align 4
  store i32 1, ptr %8, align 4
  br label %41

27:                                               ; preds = %20, %14
  %28 = load ptr, ptr %5, align 8, !tbaa !134
  %29 = call i32 @EVP_CIPHER_get_type(ptr noundef %28)
  store i32 %29, ptr %6, align 4, !tbaa !8
  %30 = load i32, ptr %6, align 4, !tbaa !8
  %31 = icmp eq i32 %30, 0
  br i1 %31, label %32, label %33

32:                                               ; preds = %27
  call void @ERR_new()
  call void @ERR_set_debug(ptr noundef @.str, i32 noundef 707, ptr noundef @__func__.PKCS7_set_cipher)
  call void (i32, i32, ptr, ...) @ERR_set_error(i32 noundef 33, i32 noundef 144, ptr noundef null)
  store i32 0, ptr %3, align 4
  store i32 1, ptr %8, align 4
  br label %41

33:                                               ; preds = %27
  %34 = load ptr, ptr %5, align 8, !tbaa !134
  %35 = load ptr, ptr %7, align 8, !tbaa !135
  %36 = getelementptr inbounds nuw %struct.pkcs7_enc_content_st, ptr %35, i32 0, i32 3
  store ptr %34, ptr %36, align 8, !tbaa !136
  %37 = load ptr, ptr %4, align 8, !tbaa !3
  %38 = call ptr @ossl_pkcs7_get0_ctx(ptr noundef %37)
  %39 = load ptr, ptr %7, align 8, !tbaa !135
  %40 = getelementptr inbounds nuw %struct.pkcs7_enc_content_st, ptr %39, i32 0, i32 4
  store ptr %38, ptr %40, align 8, !tbaa !137
  store i32 1, ptr %3, align 4
  store i32 1, ptr %8, align 4
  br label %41

41:                                               ; preds = %33, %32, %26
  call void @llvm.lifetime.end.p0(i64 8, ptr %7) #4
  call void @llvm.lifetime.end.p0(i64 4, ptr %6) #4
  %42 = load i32, ptr %3, align 4
  ret i32 %42
}