; Function Attrs: nounwind uwtable
define range(i32 0, 2) i32 @PKCS7_set_cipher(ptr noundef %0, ptr noundef %1) local_unnamed_addr #0 {
  %3 = getelementptr inbounds nuw i8, ptr %0, i64 24
  %4 = load ptr, ptr %3, align 8, !tbaa !3
  %5 = tail call i32 @OBJ_obj2nid(ptr noundef %4) #7
  switch i32 %5, label %7 [
    i32 24, label %8
    i32 23, label %6
  ]

6:                                                ; preds = %2
  br label %8

7:                                                ; preds = %2
  tail call void @ERR_new() #7
  tail call void @ERR_set_debug(ptr noundef nonnull @.str, i32 noundef 700, ptr noundef nonnull @__func__.PKCS7_set_cipher) #7
  tail call void (i32, i32, ptr, ...) @ERR_set_error(i32 noundef 33, i32 noundef 113, ptr noundef null) #7
  br label %19

8:                                                ; preds = %2, %6
  %.sink11 = phi i64 [ 16, %6 ], [ 40, %2 ]
  %9 = getelementptr inbounds nuw i8, ptr %0, i64 32
  %10 = load ptr, ptr %9, align 8, !tbaa !14
  %11 = getelementptr inbounds nuw i8, ptr %10, i64 %.sink11
  %.0 = load ptr, ptr %11, align 8, !tbaa !102
  %12 = tail call i32 @EVP_CIPHER_get_type(ptr noundef %1) #7
  %13 = icmp eq i32 %12, 0
  br i1 %13, label %14, label %15

14:                                               ; preds = %8
  tail call void @ERR_new() #7
  tail call void @ERR_set_debug(ptr noundef nonnull @.str, i32 noundef 707, ptr noundef nonnull @__func__.PKCS7_set_cipher) #7
  tail call void (i32, i32, ptr, ...) @ERR_set_error(i32 noundef 33, i32 noundef 144, ptr noundef null) #7
  br label %19

15:                                               ; preds = %8
  %16 = getelementptr inbounds nuw i8, ptr %.0, i64 24
  store ptr %1, ptr %16, align 8, !tbaa !103
  %17 = getelementptr inbounds nuw i8, ptr %0, i64 40
  %18 = getelementptr inbounds nuw i8, ptr %.0, i64 32
  store ptr %17, ptr %18, align 8, !tbaa !104
  br label %19

19:                                               ; preds = %15, %14, %7
  %.010 = phi i32 [ 0, %7 ], [ 0, %14 ], [ 1, %15 ]
  ret i32 %.010
}